(lp0
(dp1
S'q'
p2
ccopy_reg
_reconstructor
p3
(cscitbx.matrix
rec
p4
c__builtin__
object
p5
Ntp6
Rp7
(dp8
S'elems'
p9
(F0.12105797241754451
F-0.02122657975431047
F-0.011813493657807705
tp10
sS'n'
p11
(I3
I1
tp12
sbsS'angle'
p13
F-78.39999999999985
sS'axis'
p14
(F0.0
F1.0
F0.0
tp15
sa(dp16
g2
g3
(g4
g5
Ntp17
Rp18
(dp19
g9
(F0.1075891806640103
F-0.020720137910723975
F-0.009370542876482979
tp20
sg11
(I3
I1
tp21
sbsg13
F104.80000000000275
sg14
(F0.0
F1.0
F0.0
tp22
sa(dp23
g2
g3
(g4
g5
Ntp24
Rp25
(dp26
g9
(F0.12810187447454174
F-0.021488421893097496
F-0.013209229562347491
tp27
sg11
(I3
I1
tp28
sbsg13
F204.20000000000368
sg14
(F0.0
F1.0
F0.0
tp29
sa(dp30
g2
g3
(g4
g5
Ntp31
Rp32
(dp33
g9
(F0.11282399269912965
F-0.02114003748518492
F-0.010292305874184948
tp34
sg11
(I3
I1
tp35
sbsg13
F-9.599999999998868
sg14
(F0.0
F1.0
F0.0
tp36
sa.