(lp0
S'cubrot_-01.jpeg'
p1
aS'cubrot_000.jpeg'
p2
aS'cubrot_001.jpeg'
p3
aS'cubrot_002.jpeg'
p4
aS'cubrot_003.jpeg'
p5
aS'cubrot_004.jpeg'
p6
aS'cubrot_005.jpeg'
p7
aS'cubrot_006.jpeg'
p8
aS'cubrot_007.jpeg'
p9
aS'cubrot_008.jpeg'
p10
aS'cubrot_009.jpeg'
p11
aS'cubrot_010.jpeg'
p12
aS'cubrot_011.jpeg'
p13
aS'cubrot_012.jpeg'
p14
aS'cubrot_013.jpeg'
p15
aS'cubrot_014.jpeg'
p16
aS'cubrot_015.jpeg'
p17
aS'cubrot_016.jpeg'
p18
aS'cubrot_017.jpeg'
p19
aS'cubrot_018.jpeg'
p20
aS'cubrot_019.jpeg'
p21
aS'cubrot_020.jpeg'
p22
aS'cubrot_021.jpeg'
p23
aS'cubrot_022.jpeg'
p24
aS'cubrot_023.jpeg'
p25
aS'cubrot_024.jpeg'
p26
aS'cubrot_025.jpeg'
p27
aS'cubrot_026.jpeg'
p28
aS'cubrot_027.jpeg'
p29
aS'cubrot_028.jpeg'
p30
aS'cubrot_029.jpeg'
p31
aS'cubrot_030.jpeg'
p32
aS'cubrot_031.jpeg'
p33
aS'cubrot_032.jpeg'
p34
aS'cubrot_033.jpeg'
p35
aS'cubrot_034.jpeg'
p36
aS'cubrot_035.jpeg'
p37
aS'cubrot_036.jpeg'
p38
aS'cubrot_037.jpeg'
p39
aS'cubrot_038.jpeg'
p40
aS'cubrot_039.jpeg'
p41
aS'cubrot_040.jpeg'
p42
aS'cubrot_041.jpeg'
p43
aS'cubrot_042.jpeg'
p44
aS'cubrot_043.jpeg'
p45
aS'cubrot_044.jpeg'
p46
aS'cubrot_045.jpeg'
p47
aS'cubrot_046.jpeg'
p48
aS'cubrot_047.jpeg'
p49
aS'cubrot_048.jpeg'
p50
aS'cubrot_049.jpeg'
p51
aS'cubrot_050.jpeg'
p52
aS'cubrot_051.jpeg'
p53
aS'cubrot_052.jpeg'
p54
aS'cubrot_053.jpeg'
p55
aS'cubrot_054.jpeg'
p56
aS'cubrot_055.jpeg'
p57
aS'cubrot_056.jpeg'
p58
aS'cubrot_057.jpeg'
p59
aS'cubrot_058.jpeg'
p60
aS'cubrot_059.jpeg'
p61
aS'cubrot_060.jpeg'
p62
aS'cubrot_061.jpeg'
p63
aS'cubrot_062.jpeg'
p64
aS'cubrot_063.jpeg'
p65
aS'cubrot_064.jpeg'
p66
aS'cubrot_065.jpeg'
p67
aS'cubrot_066.jpeg'
p68
aS'cubrot_067.jpeg'
p69
aS'cubrot_068.jpeg'
p70
aS'cubrot_069.jpeg'
p71
aS'cubrot_070.jpeg'
p72
aS'cubrot_071.jpeg'
p73
aS'cubrot_072.jpeg'
p74
aS'cubrot_073.jpeg'
p75
aS'cubrot_074.jpeg'
p76
aS'cubrot_075.jpeg'
p77
aS'cubrot_076.jpeg'
p78
aS'cubrot_077.jpeg'
p79
aS'cubrot_078.jpeg'
p80
aS'cubrot_079.jpeg'
p81
aS'cubrot_080.jpeg'
p82
aS'cubrot_081.jpeg'
p83
aS'cubrot_082.jpeg'
p84
aS'cubrot_083.jpeg'
p85
aS'cubrot_084.jpeg'
p86
aS'cubrot_085.jpeg'
p87
aS'cubrot_086.jpeg'
p88
aS'cubrot_087.jpeg'
p89
aS'cubrot_088.jpeg'
p90
aS'cubrot_089.jpeg'
p91
aS'cubrot_090.jpeg'
p92
aS'cubrot_091.jpeg'
p93
aS'cubrot_092.jpeg'
p94
aS'cubrot_093.jpeg'
p95
aS'cubrot_094.jpeg'
p96
aS'cubrot_095.jpeg'
p97
aS'cubrot_096.jpeg'
p98
aS'cubrot_097.jpeg'
p99
aS'cubrot_098.jpeg'
p100
aS'cubrot_099.jpeg'
p101
aS'cubrot_100.jpeg'
p102
aS'cubrot_101.jpeg'
p103
aS'cubrot_102.jpeg'
p104
aS'cubrot_103.jpeg'
p105
aS'cubrot_104.jpeg'
p106
aS'cubrot_105.jpeg'
p107
aS'cubrot_106.jpeg'
p108
aS'cubrot_107.jpeg'
p109
aS'cubrot_108.jpeg'
p110
aS'cubrot_109.jpeg'
p111
aS'cubrot_110.jpeg'
p112
aS'cubrot_111.jpeg'
p113
aS'cubrot_112.jpeg'
p114
aS'cubrot_113.jpeg'
p115
aS'cubrot_114.jpeg'
p116
aS'cubrot_115.jpeg'
p117
aS'cubrot_116.jpeg'
p118
aS'cubrot_117.jpeg'
p119
aS'cubrot_118.jpeg'
p120
aS'cubrot_119.jpeg'
p121
aS'cubrot_120.jpeg'
p122
aS'cubrot_121.jpeg'
p123
aS'cubrot_122.jpeg'
p124
aS'cubrot_123.jpeg'
p125
aS'cubrot_124.jpeg'
p126
aS'cubrot_125.jpeg'
p127
aS'cubrot_126.jpeg'
p128
aS'cubrot_127.jpeg'
p129
aS'cubrot_128.jpeg'
p130
aS'cubrot_129.jpeg'
p131
aS'cubrot_130.jpeg'
p132
aS'cubrot_131.jpeg'
p133
aS'cubrot_132.jpeg'
p134
aS'cubrot_133.jpeg'
p135
aS'cubrot_134.jpeg'
p136
aS'cubrot_135.jpeg'
p137
aS'cubrot_136.jpeg'
p138
aS'cubrot_137.jpeg'
p139
aS'cubrot_138.jpeg'
p140
aS'cubrot_139.jpeg'
p141
aS'cubrot_140.jpeg'
p142
aS'cubrot_141.jpeg'
p143
aS'cubrot_142.jpeg'
p144
aS'cubrot_143.jpeg'
p145
aS'cubrot_144.jpeg'
p146
aS'cubrot_145.jpeg'
p147
aS'cubrot_146.jpeg'
p148
aS'cubrot_147.jpeg'
p149
aS'cubrot_148.jpeg'
p150
aS'cubrot_149.jpeg'
p151
aS'cubrot_150.jpeg'
p152
aS'cubrot_151.jpeg'
p153
aS'cubrot_152.jpeg'
p154
aS'cubrot_153.jpeg'
p155
aS'cubrot_154.jpeg'
p156
aS'cubrot_155.jpeg'
p157
aS'cubrot_156.jpeg'
p158
aS'cubrot_157.jpeg'
p159
aS'cubrot_158.jpeg'
p160
aS'cubrot_159.jpeg'
p161
aS'cubrot_160.jpeg'
p162
aS'cubrot_161.jpeg'
p163
aS'cubrot_162.jpeg'
p164
aS'cubrot_163.jpeg'
p165
aS'cubrot_164.jpeg'
p166
aS'cubrot_165.jpeg'
p167
aS'cubrot_166.jpeg'
p168
aS'cubrot_167.jpeg'
p169
aS'cubrot_168.jpeg'
p170
aS'cubrot_169.jpeg'
p171
aS'cubrot_170.jpeg'
p172
aS'cubrot_171.jpeg'
p173
aS'cubrot_172.jpeg'
p174
aS'cubrot_173.jpeg'
p175
aS'cubrot_174.jpeg'
p176
aS'cubrot_175.jpeg'
p177
aS'cubrot_176.jpeg'
p178
aS'cubrot_177.jpeg'
p179
aS'cubrot_178.jpeg'
p180
aS'cubrot_179.jpeg'
p181
aS'cubrot_180.jpeg'
p182
aS'cubrot_181.jpeg'
p183
aS'cubrot_182.jpeg'
p184
aS'cubrot_183.jpeg'
p185
aS'cubrot_184.jpeg'
p186
aS'cubrot_185.jpeg'
p187
aS'cubrot_186.jpeg'
p188
aS'cubrot_187.jpeg'
p189
aS'cubrot_188.jpeg'
p190
aS'cubrot_189.jpeg'
p191
aS'cubrot_190.jpeg'
p192
aS'cubrot_191.jpeg'
p193
aS'cubrot_192.jpeg'
p194
aS'cubrot_193.jpeg'
p195
aS'cubrot_194.jpeg'
p196
aS'cubrot_195.jpeg'
p197
aS'cubrot_196.jpeg'
p198
aS'cubrot_197.jpeg'
p199
aS'cubrot_198.jpeg'
p200
aS'cubrot_199.jpeg'
p201
aS'cubrot_200.jpeg'
p202
aS'cubrot_201.jpeg'
p203
aS'cubrot_202.jpeg'
p204
aS'cubrot_203.jpeg'
p205
aS'cubrot_204.jpeg'
p206
aS'cubrot_205.jpeg'
p207
aS'cubrot_206.jpeg'
p208
aS'cubrot_207.jpeg'
p209
aS'cubrot_208.jpeg'
p210
aS'cubrot_209.jpeg'
p211
aS'cubrot_210.jpeg'
p212
aS'cubrot_211.jpeg'
p213
aS'cubrot_212.jpeg'
p214
aS'cubrot_213.jpeg'
p215
aS'cubrot_214.jpeg'
p216
aS'cubrot_215.jpeg'
p217
aS'cubrot_216.jpeg'
p218
aS'cubrot_217.jpeg'
p219
aS'cubrot_218.jpeg'
p220
aS'cubrot_219.jpeg'
p221
aS'cubrot_220.jpeg'
p222
aS'cubrot_221.jpeg'
p223
aS'cubrot_222.jpeg'
p224
aS'cubrot_223.jpeg'
p225
aS'cubrot_224.jpeg'
p226
aS'cubrot_225.jpeg'
p227
aS'cubrot_226.jpeg'
p228
aS'cubrot_227.jpeg'
p229
aS'cubrot_228.jpeg'
p230
aS'cubrot_229.jpeg'
p231
aS'cubrot_230.jpeg'
p232
aS'cubrot_231.jpeg'
p233
aS'cubrot_232.jpeg'
p234
aS'cubrot_233.jpeg'
p235
aS'cubrot_234.jpeg'
p236
aS'cubrot_235.jpeg'
p237
aS'cubrot_236.jpeg'
p238
aS'cubrot_237.jpeg'
p239
aS'cubrot_238.jpeg'
p240
aS'cubrot_239.jpeg'
p241
aS'cubrot_240.jpeg'
p242
aS'cubrot_241.jpeg'
p243
aS'cubrot_242.jpeg'
p244
aS'cubrot_243.jpeg'
p245
aS'cubrot_244.jpeg'
p246
aS'cubrot_245.jpeg'
p247
aS'cubrot_246.jpeg'
p248
aS'cubrot_247.jpeg'
p249
aS'cubrot_248.jpeg'
p250
aS'cubrot_249.jpeg'
p251
aS'cubrot_250.jpeg'
p252
aS'cubrot_251.jpeg'
p253
aS'cubrot_252.jpeg'
p254
aS'cubrot_253.jpeg'
p255
aS'cubrot_254.jpeg'
p256
aS'cubrot_255.jpeg'
p257
aS'cubrot_256.jpeg'
p258
aS'cubrot_257.jpeg'
p259
aS'cubrot_258.jpeg'
p260
aS'cubrot_259.jpeg'
p261
aS'cubrot_260.jpeg'
p262
aS'cubrot_261.jpeg'
p263
aS'cubrot_262.jpeg'
p264
aS'cubrot_263.jpeg'
p265
aS'cubrot_264.jpeg'
p266
aS'cubrot_265.jpeg'
p267
aS'cubrot_266.jpeg'
p268
aS'cubrot_267.jpeg'
p269
aS'cubrot_268.jpeg'
p270
aS'cubrot_269.jpeg'
p271
aS'cubrot_270.jpeg'
p272
aS'cubrot_271.jpeg'
p273
aS'cubrot_272.jpeg'
p274
aS'cubrot_273.jpeg'
p275
aS'cubrot_274.jpeg'
p276
aS'cubrot_275.jpeg'
p277
aS'cubrot_276.jpeg'
p278
aS'cubrot_277.jpeg'
p279
aS'cubrot_278.jpeg'
p280
aS'cubrot_279.jpeg'
p281
aS'cubrot_280.jpeg'
p282
aS'cubrot_281.jpeg'
p283
aS'cubrot_282.jpeg'
p284
aS'cubrot_283.jpeg'
p285
aS'cubrot_284.jpeg'
p286
aS'cubrot_285.jpeg'
p287
aS'cubrot_286.jpeg'
p288
aS'cubrot_287.jpeg'
p289
aS'cubrot_288.jpeg'
p290
aS'cubrot_289.jpeg'
p291
aS'cubrot_290.jpeg'
p292
aS'cubrot_291.jpeg'
p293
aS'cubrot_292.jpeg'
p294
aS'cubrot_293.jpeg'
p295
aS'cubrot_294.jpeg'
p296
aS'cubrot_295.jpeg'
p297
aS'cubrot_296.jpeg'
p298
aS'cubrot_297.jpeg'
p299
aS'cubrot_298.jpeg'
p300
aS'cubrot_299.jpeg'
p301
aS'cubrot_300.jpeg'
p302
aS'cubrot_301.jpeg'
p303
aS'cubrot_302.jpeg'
p304
aS'cubrot_303.jpeg'
p305
aS'cubrot_304.jpeg'
p306
aS'cubrot_305.jpeg'
p307
aS'cubrot_306.jpeg'
p308
aS'cubrot_307.jpeg'
p309
aS'cubrot_308.jpeg'
p310
aS'cubrot_309.jpeg'
p311
aS'cubrot_310.jpeg'
p312
aS'cubrot_311.jpeg'
p313
aS'cubrot_312.jpeg'
p314
aS'cubrot_313.jpeg'
p315
aS'cubrot_314.jpeg'
p316
aS'cubrot_315.jpeg'
p317
aS'cubrot_316.jpeg'
p318
aS'cubrot_317.jpeg'
p319
aS'cubrot_318.jpeg'
p320
aS'cubrot_319.jpeg'
p321
aS'cubrot_320.jpeg'
p322
aS'cubrot_321.jpeg'
p323
aS'cubrot_322.jpeg'
p324
aS'cubrot_323.jpeg'
p325
aS'cubrot_324.jpeg'
p326
aS'cubrot_325.jpeg'
p327
aS'cubrot_326.jpeg'
p328
aS'cubrot_327.jpeg'
p329
aS'cubrot_328.jpeg'
p330
aS'cubrot_329.jpeg'
p331
aS'cubrot_330.jpeg'
p332
aS'cubrot_331.jpeg'
p333
aS'cubrot_332.jpeg'
p334
aS'cubrot_333.jpeg'
p335
aS'cubrot_334.jpeg'
p336
aS'cubrot_335.jpeg'
p337
aS'cubrot_336.jpeg'
p338
aS'cubrot_337.jpeg'
p339
aS'cubrot_338.jpeg'
p340
aS'cubrot_339.jpeg'
p341
aS'cubrot_340.jpeg'
p342
aS'cubrot_341.jpeg'
p343
aS'cubrot_342.jpeg'
p344
aS'cubrot_343.jpeg'
p345
aS'cubrot_344.jpeg'
p346
aS'cubrot_345.jpeg'
p347
aS'cubrot_346.jpeg'
p348
aS'cubrot_347.jpeg'
p349
aS'cubrot_348.jpeg'
p350
aS'cubrot_349.jpeg'
p351
aS'cubrot_350.jpeg'
p352
aS'cubrot_351.jpeg'
p353
aS'cubrot_352.jpeg'
p354
aS'cubrot_353.jpeg'
p355
aS'cubrot_354.jpeg'
p356
aS'cubrot_355.jpeg'
p357
aS'cubrot_356.jpeg'
p358
aS'cubrot_357.jpeg'
p359
aS'cubrot_358.jpeg'
p360
aS'cubrot_359.jpeg'
p361
aS'cubrot_360.jpeg'
p362
aS'cubrot_361.jpeg'
p363
aS'cubrot_362.jpeg'
p364
aS'cubrot_363.jpeg'
p365
aS'cubrot_364.jpeg'
p366
aS'cubrot_365.jpeg'
p367
aS'cubrot_366.jpeg'
p368
aS'cubrot_367.jpeg'
p369
aS'cubrot_368.jpeg'
p370
aS'cubrot_369.jpeg'
p371
aS'cubrot_370.jpeg'
p372
aS'cubrot_371.jpeg'
p373
aS'cubrot_372.jpeg'
p374
aS'cubrot_373.jpeg'
p375
aS'cubrot_374.jpeg'
p376
aS'cubrot_375.jpeg'
p377
aS'cubrot_376.jpeg'
p378
aS'cubrot_377.jpeg'
p379
aS'cubrot_378.jpeg'
p380
aS'cubrot_379.jpeg'
p381
aS'cubrot_380.jpeg'
p382
aS'cubrot_381.jpeg'
p383
aS'cubrot_382.jpeg'
p384
aS'cubrot_383.jpeg'
p385
aS'cubrot_384.jpeg'
p386
aS'cubrot_385.jpeg'
p387
aS'cubrot_386.jpeg'
p388
aS'cubrot_387.jpeg'
p389
aS'cubrot_388.jpeg'
p390
aS'cubrot_389.jpeg'
p391
aS'cubrot_390.jpeg'
p392
aS'cubrot_391.jpeg'
p393
aS'cubrot_392.jpeg'
p394
aS'cubrot_393.jpeg'
p395
aS'cubrot_394.jpeg'
p396
aS'cubrot_395.jpeg'
p397
aS'cubrot_396.jpeg'
p398
aS'cubrot_397.jpeg'
p399
aS'cubrot_398.jpeg'
p400
aS'cubrot_399.jpeg'
p401
aS'cubrot_400.jpeg'
p402
aS'cubrot_401.jpeg'
p403
aS'cubrot_402.jpeg'
p404
aS'cubrot_403.jpeg'
p405
aS'cubrot_404.jpeg'
p406
aS'cubrot_405.jpeg'
p407
aS'cubrot_406.jpeg'
p408
aS'cubrot_407.jpeg'
p409
aS'cubrot_408.jpeg'
p410
aS'cubrot_409.jpeg'
p411
aS'cubrot_410.jpeg'
p412
aS'cubrot_411.jpeg'
p413
aS'cubrot_412.jpeg'
p414
aS'cubrot_413.jpeg'
p415
aS'cubrot_414.jpeg'
p416
aS'cubrot_415.jpeg'
p417
aS'cubrot_416.jpeg'
p418
aS'cubrot_417.jpeg'
p419
aS'cubrot_418.jpeg'
p420
aS'cubrot_419.jpeg'
p421
aS'cubrot_420.jpeg'
p422
aS'cubrot_421.jpeg'
p423
aS'cubrot_422.jpeg'
p424
aS'cubrot_423.jpeg'
p425
aS'cubrot_424.jpeg'
p426
aS'cubrot_425.jpeg'
p427
aS'cubrot_426.jpeg'
p428
aS'cubrot_427.jpeg'
p429
aS'cubrot_428.jpeg'
p430
aS'cubrot_429.jpeg'
p431
aS'cubrot_430.jpeg'
p432
aS'cubrot_431.jpeg'
p433
aS'cubrot_432.jpeg'
p434
aS'cubrot_433.jpeg'
p435
aS'cubrot_434.jpeg'
p436
aS'cubrot_435.jpeg'
p437
aS'cubrot_436.jpeg'
p438
aS'cubrot_437.jpeg'
p439
aS'cubrot_438.jpeg'
p440
aS'cubrot_439.jpeg'
p441
aS'cubrot_440.jpeg'
p442
aS'cubrot_441.jpeg'
p443
aS'cubrot_442.jpeg'
p444
aS'cubrot_443.jpeg'
p445
aS'cubrot_444.jpeg'
p446
aS'cubrot_445.jpeg'
p447
aS'cubrot_446.jpeg'
p448
aS'cubrot_447.jpeg'
p449
aS'cubrot_448.jpeg'
p450
aS'cubrot_449.jpeg'
p451
aS'cubrot_450.jpeg'
p452
aS'cubrot_451.jpeg'
p453
aS'cubrot_452.jpeg'
p454
aS'cubrot_453.jpeg'
p455
aS'cubrot_454.jpeg'
p456
aS'cubrot_455.jpeg'
p457
aS'cubrot_456.jpeg'
p458
aS'cubrot_457.jpeg'
p459
aS'cubrot_458.jpeg'
p460
aS'cubrot_459.jpeg'
p461
aS'cubrot_460.jpeg'
p462
aS'cubrot_461.jpeg'
p463
aS'cubrot_462.jpeg'
p464
aS'cubrot_463.jpeg'
p465
aS'cubrot_464.jpeg'
p466
aS'cubrot_465.jpeg'
p467
aS'cubrot_466.jpeg'
p468
aS'cubrot_467.jpeg'
p469
aS'cubrot_468.jpeg'
p470
aS'cubrot_469.jpeg'
p471
aS'cubrot_470.jpeg'
p472
aS'cubrot_471.jpeg'
p473
aS'cubrot_472.jpeg'
p474
aS'cubrot_473.jpeg'
p475
aS'cubrot_474.jpeg'
p476
aS'cubrot_475.jpeg'
p477
aS'cubrot_476.jpeg'
p478
aS'cubrot_477.jpeg'
p479
aS'cubrot_478.jpeg'
p480
aS'cubrot_479.jpeg'
p481
aS'cubrot_480.jpeg'
p482
aS'cubrot_481.jpeg'
p483
aS'cubrot_482.jpeg'
p484
aS'cubrot_483.jpeg'
p485
aS'cubrot_484.jpeg'
p486
aS'cubrot_485.jpeg'
p487
aS'cubrot_486.jpeg'
p488
aS'cubrot_487.jpeg'
p489
aS'cubrot_488.jpeg'
p490
aS'cubrot_489.jpeg'
p491
aS'cubrot_490.jpeg'
p492
aS'cubrot_491.jpeg'
p493
aS'cubrot_492.jpeg'
p494
aS'cubrot_493.jpeg'
p495
aS'cubrot_494.jpeg'
p496
aS'cubrot_495.jpeg'
p497
aS'cubrot_496.jpeg'
p498
aS'cubrot_497.jpeg'
p499
aS'cubrot_498.jpeg'
p500
aS'cubrot_499.jpeg'
p501
aS'cubrot_500.jpeg'
p502
aS'cubrot_501.jpeg'
p503
aS'cubrot_502.jpeg'
p504
aS'cubrot_503.jpeg'
p505
aS'cubrot_504.jpeg'
p506
aS'cubrot_505.jpeg'
p507
aS'cubrot_506.jpeg'
p508
aS'cubrot_507.jpeg'
p509
aS'cubrot_508.jpeg'
p510
aS'cubrot_509.jpeg'
p511
aS'cubrot_510.jpeg'
p512
aS'cubrot_511.jpeg'
p513
aS'cubrot_512.jpeg'
p514
aS'cubrot_513.jpeg'
p515
aS'cubrot_514.jpeg'
p516
aS'cubrot_515.jpeg'
p517
aS'cubrot_516.jpeg'
p518
aS'cubrot_517.jpeg'
p519
aS'cubrot_518.jpeg'
p520
aS'cubrot_519.jpeg'
p521
aS'cubrot_520.jpeg'
p522
aS'cubrot_521.jpeg'
p523
aS'cubrot_522.jpeg'
p524
aS'cubrot_523.jpeg'
p525
aS'cubrot_524.jpeg'
p526
aS'cubrot_525.jpeg'
p527
aS'cubrot_526.jpeg'
p528
aS'cubrot_527.jpeg'
p529
aS'cubrot_528.jpeg'
p530
aS'cubrot_529.jpeg'
p531
aS'cubrot_530.jpeg'
p532
aS'cubrot_531.jpeg'
p533
aS'cubrot_532.jpeg'
p534
aS'cubrot_533.jpeg'
p535
aS'cubrot_534.jpeg'
p536
aS'cubrot_535.jpeg'
p537
aS'cubrot_536.jpeg'
p538
aS'cubrot_537.jpeg'
p539
aS'cubrot_538.jpeg'
p540
aS'cubrot_539.jpeg'
p541
aS'cubrot_540.jpeg'
p542
aS'cubrot_541.jpeg'
p543
aS'cubrot_542.jpeg'
p544
aS'cubrot_543.jpeg'
p545
aS'cubrot_544.jpeg'
p546
aS'cubrot_545.jpeg'
p547
aS'cubrot_546.jpeg'
p548
aS'cubrot_547.jpeg'
p549
aS'cubrot_548.jpeg'
p550
aS'cubrot_549.jpeg'
p551
aS'cubrot_550.jpeg'
p552
aS'cubrot_551.jpeg'
p553
aS'cubrot_552.jpeg'
p554
aS'cubrot_553.jpeg'
p555
aS'cubrot_554.jpeg'
p556
aS'cubrot_555.jpeg'
p557
aS'cubrot_556.jpeg'
p558
aS'cubrot_557.jpeg'
p559
aS'cubrot_558.jpeg'
p560
aS'cubrot_559.jpeg'
p561
aS'cubrot_560.jpeg'
p562
aS'cubrot_561.jpeg'
p563
aS'cubrot_562.jpeg'
p564
aS'cubrot_563.jpeg'
p565
aS'cubrot_564.jpeg'
p566
aS'cubrot_565.jpeg'
p567
aS'cubrot_566.jpeg'
p568
aS'cubrot_567.jpeg'
p569
aS'cubrot_568.jpeg'
p570
aS'cubrot_569.jpeg'
p571
aS'cubrot_570.jpeg'
p572
aS'cubrot_571.jpeg'
p573
aS'cubrot_572.jpeg'
p574
aS'cubrot_573.jpeg'
p575
aS'cubrot_574.jpeg'
p576
aS'cubrot_575.jpeg'
p577
aS'cubrot_576.jpeg'
p578
aS'cubrot_577.jpeg'
p579
aS'cubrot_578.jpeg'
p580
aS'cubrot_579.jpeg'
p581
aS'cubrot_580.jpeg'
p582
aS'cubrot_581.jpeg'
p583
aS'cubrot_582.jpeg'
p584
aS'cubrot_583.jpeg'
p585
aS'cubrot_584.jpeg'
p586
aS'cubrot_585.jpeg'
p587
aS'cubrot_586.jpeg'
p588
aS'cubrot_587.jpeg'
p589
aS'cubrot_588.jpeg'
p590
aS'cubrot_589.jpeg'
p591
aS'cubrot_590.jpeg'
p592
aS'cubrot_591.jpeg'
p593
aS'cubrot_592.jpeg'
p594
aS'cubrot_593.jpeg'
p595
aS'cubrot_594.jpeg'
p596
aS'cubrot_595.jpeg'
p597
aS'cubrot_596.jpeg'
p598
aS'cubrot_597.jpeg'
p599
aS'cubrot_598.jpeg'
p600
aS'cubrot_599.jpeg'
p601
a.