(lp0
S'tmprot_000.jpeg'
p1
aS'tmprot_001.jpeg'
p2
aS'tmprot_002.jpeg'
p3
aS'tmprot_003.jpeg'
p4
aS'tmprot_004.jpeg'
p5
aS'tmprot_005.jpeg'
p6
aS'tmprot_006.jpeg'
p7
aS'tmprot_007.jpeg'
p8
aS'tmprot_008.jpeg'
p9
aS'tmprot_009.jpeg'
p10
aS'tmprot_010.jpeg'
p11
aS'tmprot_011.jpeg'
p12
aS'tmprot_012.jpeg'
p13
aS'tmprot_013.jpeg'
p14
aS'tmprot_014.jpeg'
p15
aS'tmprot_015.jpeg'
p16
aS'tmprot_016.jpeg'
p17
aS'tmprot_017.jpeg'
p18
aS'tmprot_018.jpeg'
p19
aS'tmprot_019.jpeg'
p20
aS'tmprot_020.jpeg'
p21
aS'tmprot_021.jpeg'
p22
aS'tmprot_022.jpeg'
p23
aS'tmprot_023.jpeg'
p24
aS'tmprot_024.jpeg'
p25
aS'tmprot_025.jpeg'
p26
aS'tmprot_026.jpeg'
p27
aS'tmprot_027.jpeg'
p28
aS'tmprot_028.jpeg'
p29
aS'tmprot_029.jpeg'
p30
aS'tmprot_030.jpeg'
p31
aS'tmprot_031.jpeg'
p32
aS'tmprot_032.jpeg'
p33
aS'tmprot_033.jpeg'
p34
aS'tmprot_034.jpeg'
p35
aS'tmprot_035.jpeg'
p36
aS'tmprot_036.jpeg'
p37
aS'tmprot_037.jpeg'
p38
aS'tmprot_038.jpeg'
p39
aS'tmprot_039.jpeg'
p40
aS'tmprot_040.jpeg'
p41
aS'tmprot_041.jpeg'
p42
aS'tmprot_042.jpeg'
p43
aS'tmprot_043.jpeg'
p44
aS'tmprot_044.jpeg'
p45
aS'tmprot_045.jpeg'
p46
aS'tmprot_046.jpeg'
p47
aS'tmprot_047.jpeg'
p48
aS'tmprot_048.jpeg'
p49
aS'tmprot_049.jpeg'
p50
aS'tmprot_050.jpeg'
p51
aS'tmprot_051.jpeg'
p52
aS'tmprot_052.jpeg'
p53
aS'tmprot_053.jpeg'
p54
aS'tmprot_054.jpeg'
p55
aS'tmprot_055.jpeg'
p56
aS'tmprot_056.jpeg'
p57
aS'tmprot_057.jpeg'
p58
aS'tmprot_058.jpeg'
p59
aS'tmprot_059.jpeg'
p60
aS'tmprot_060.jpeg'
p61
aS'tmprot_061.jpeg'
p62
aS'tmprot_062.jpeg'
p63
aS'tmprot_063.jpeg'
p64
aS'tmprot_064.jpeg'
p65
aS'tmprot_065.jpeg'
p66
aS'tmprot_066.jpeg'
p67
aS'tmprot_067.jpeg'
p68
aS'tmprot_068.jpeg'
p69
aS'tmprot_069.jpeg'
p70
aS'tmprot_070.jpeg'
p71
aS'tmprot_071.jpeg'
p72
aS'tmprot_072.jpeg'
p73
aS'tmprot_073.jpeg'
p74
aS'tmprot_074.jpeg'
p75
aS'tmprot_075.jpeg'
p76
aS'tmprot_076.jpeg'
p77
aS'tmprot_077.jpeg'
p78
aS'tmprot_078.jpeg'
p79
aS'tmprot_079.jpeg'
p80
aS'tmprot_080.jpeg'
p81
a.